; Function Attrs: mustprogress nounwind uwtable
define internal noundef ptr @_ZN4node6worker12_GLOBAL__N_120DeserializerDelegate22GetSharedValueConveyorEPN2v87IsolateE(ptr nocapture noundef nonnull readonly align 8 dereferenceable(56) %this, ptr nocapture readnone %isolate) unnamed_addr #6 align 2 {
entry:
  %shared_value_conveyor_ = getelementptr inbounds i8, ptr %this, i64 48
  %0 = load ptr, ptr %shared_value_conveyor_, align 8
  %_M_engaged.i.i = getelementptr inbounds i8, ptr %0, i64 8
  %1 = load i8, ptr %_M_engaged.i.i, align 8
  %2 = and i8 %1, 1
  %tobool.i.i.not = icmp eq i8 %2, 0
  br i1 %tobool.i.i.not, label %do.body4, label %_ZNKRSt8optionalIN2v819SharedValueConveyorEE5valueEv.exit

do.body4:                                         ; preds = %entry
  tail call void @_ZN4node6AssertERKNS_13AssertionInfoE(ptr noundef nonnull align 8 dereferenceable(24) @_ZZN4node6worker12_GLOBAL__N_120DeserializerDelegate22GetSharedValueConveyorEPN2v87IsolateEE4args) #26
  tail call void @abort() #27
  unreachable

_ZNKRSt8optionalIN2v819SharedValueConveyorEE5valueEv.exit: ; preds = %entry
  ret ptr %0
}